target datalayout = "e-m:e-p270:32:32-p271:32:32-p272:64:64-i64:64-i128:128-f80:128-n8:16:32:64-S128"
target triple = "x86_64-pc-linux-gnu"

%struct.PLpgSQL_execstate = type { ptr, ptr, ptr, i64, i8, i32, i32, i8, i8, i8, i8, ptr, ptr, ptr, ptr, ptr, ptr, ptr, i32, i32, ptr, ptr, ptr, ptr, ptr, ptr, ptr, ptr, ptr, ptr, i64, ptr, ptr, ptr, ptr, ptr }
%struct.ExprContext = type { i32, ptr, ptr, ptr, ptr, ptr, ptr, ptr, ptr, ptr, i64, i8, i64, i8, ptr, ptr, ptr, ptr }
%struct.PLpgSQL_expr = type { ptr, i32, ptr, ptr, i32, i8, ptr, ptr, ptr, i32, i32, i8, i32, ptr, ptr, ptr, i32, ptr, i8, i32 }

; Function Attrs: nounwind uwtable
define internal void @exec_eval_cleanup(ptr noundef %0) #0 {
  %2 = alloca ptr, align 8
  store ptr %0, ptr %2, align 8
  %3 = load ptr, ptr %2, align 8
  %4 = getelementptr inbounds nuw %struct.PLpgSQL_execstate, ptr %3, i32 0, i32 29
  %5 = load ptr, ptr %4, align 8
  %6 = icmp ne ptr %5, null
  br i1 %6, label %7, label %11

7:                                                ; preds = %1
  %8 = load ptr, ptr %2, align 8
  %9 = getelementptr inbounds nuw %struct.PLpgSQL_execstate, ptr %8, i32 0, i32 29
  %10 = load ptr, ptr %9, align 8
  call void @SPI_freetuptable(ptr noundef %10)
  br label %11

11:                                               ; preds = %7, %1
  %12 = load ptr, ptr %2, align 8
  %13 = getelementptr inbounds nuw %struct.PLpgSQL_execstate, ptr %12, i32 0, i32 29
  store ptr null, ptr %13, align 8
  %14 = load ptr, ptr %2, align 8
  %15 = getelementptr inbounds nuw %struct.PLpgSQL_execstate, ptr %14, i32 0, i32 31
  %16 = load ptr, ptr %15, align 8
  %17 = icmp ne ptr %16, null
  br i1 %17, label %18, label %24

18:                                               ; preds = %11
  %19 = load ptr, ptr %2, align 8
  %20 = getelementptr inbounds nuw %struct.PLpgSQL_execstate, ptr %19, i32 0, i32 31
  %21 = load ptr, ptr %20, align 8
  %22 = getelementptr inbounds nuw %struct.ExprContext, ptr %21, i32 0, i32 5
  %23 = load ptr, ptr %22, align 8
  call void @MemoryContextReset(ptr noundef %23)
  br label %24

24:                                               ; preds = %18, %11
  ret void
}

; Function Attrs: nounwind uwtable
define internal void @exec_assign_expr(ptr noundef %0, ptr noundef %1, ptr noundef %2) #0 {
  %4 = alloca ptr, align 8
  %5 = alloca ptr, align 8
  %6 = alloca ptr, align 8
  %7 = alloca i64, align 8
  %8 = alloca i8, align 1
  %9 = alloca i32, align 4
  %10 = alloca i32, align 4
  store ptr %0, ptr %4, align 8
  store ptr %1, ptr %5, align 8
  store ptr %2, ptr %6, align 8
  call void @llvm.lifetime.start.p0(i64 8, ptr %7) #12
  call void @llvm.lifetime.start.p0(i64 1, ptr %8) #12
  call void @llvm.lifetime.start.p0(i64 4, ptr %9) #12
  call void @llvm.lifetime.start.p0(i64 4, ptr %10) #12
  %11 = load ptr, ptr %6, align 8
  %12 = getelementptr inbounds nuw %struct.PLpgSQL_expr, ptr %11, i32 0, i32 6
  %13 = load ptr, ptr %12, align 8
  %14 = icmp eq ptr %13, null
  br i1 %14, label %15, label %18

15:                                               ; preds = %3
  %16 = load ptr, ptr %4, align 8
  %17 = load ptr, ptr %6, align 8
  call void @exec_prepare_plan(ptr noundef %16, ptr noundef %17, i32 noundef 0)
  br label %18

18:                                               ; preds = %15, %3
  %19 = load ptr, ptr %4, align 8
  %20 = load ptr, ptr %6, align 8
  %21 = call i64 @exec_eval_expr(ptr noundef %19, ptr noundef %20, ptr noundef %8, ptr noundef %9, ptr noundef %10)
  store i64 %21, ptr %7, align 8
  %22 = load ptr, ptr %4, align 8
  %23 = load ptr, ptr %5, align 8
  %24 = load i64, ptr %7, align 8
  %25 = load i8, ptr %8, align 1, !range !3, !noundef !4
  %26 = trunc i8 %25 to i1
  %27 = load i32, ptr %9, align 4
  %28 = load i32, ptr %10, align 4
  call void @exec_assign_value(ptr noundef %22, ptr noundef %23, i64 noundef %24, i1 noundef zeroext %26, i32 noundef %27, i32 noundef %28)
  %29 = load ptr, ptr %4, align 8
  call void @exec_eval_cleanup(ptr noundef %29)
  call void @llvm.lifetime.end.p0(i64 4, ptr %10) #12
  call void @llvm.lifetime.end.p0(i64 4, ptr %9) #12
  call void @llvm.lifetime.end.p0(i64 1, ptr %8) #12
  call void @llvm.lifetime.end.p0(i64 8, ptr %7) #12
  ret void
}