; Function Attrs: nounwind uwtable
define internal void @exec_assign_expr(ptr noundef captures(none) %0, ptr noundef %1, ptr noundef %2) #0 {
  %4 = alloca i8, align 1
  %5 = alloca i32, align 4
  %6 = alloca i32, align 4
  call void @llvm.lifetime.start.p0(i64 1, ptr nonnull %4) #12
  call void @llvm.lifetime.start.p0(i64 4, ptr nonnull %5) #12
  call void @llvm.lifetime.start.p0(i64 4, ptr nonnull %6) #12
  %7 = getelementptr inbounds nuw i8, ptr %2, i64 40
  %8 = load ptr, ptr %7, align 8
  %9 = icmp eq ptr %8, null
  br i1 %9, label %10, label %11

10:                                               ; preds = %3
  tail call fastcc void @exec_prepare_plan(ptr noundef %0, ptr noundef nonnull %2, i32 noundef 0)
  br label %11

11:                                               ; preds = %10, %3
  %12 = call fastcc i64 @exec_eval_expr(ptr noundef %0, ptr noundef nonnull %2, ptr noundef nonnull %4, ptr noundef nonnull %5, ptr noundef %6)
  %13 = load i8, ptr %4, align 1, !range !3, !noundef !4
  %14 = trunc nuw i8 %13 to i1
  %15 = load i32, ptr %5, align 4
  %16 = load i32, ptr %6, align 4
  call void @exec_assign_value(ptr noundef %0, ptr noundef %1, i64 noundef %12, i1 noundef zeroext %14, i32 noundef %15, i32 noundef %16)
  %17 = getelementptr inbounds nuw i8, ptr %0, i64 184
  %18 = load ptr, ptr %17, align 8
  %.not.i = icmp eq ptr %18, null
  br i1 %.not.i, label %20, label %19

19:                                               ; preds = %11
  call void @SPI_freetuptable(ptr noundef nonnull %18) #12
  br label %20

20:                                               ; preds = %19, %11
  store ptr null, ptr %17, align 8
  %21 = getelementptr inbounds nuw i8, ptr %0, i64 200
  %22 = load ptr, ptr %21, align 8
  %.not6.i = icmp eq ptr %22, null
  br i1 %.not6.i, label %exec_eval_cleanup.exit, label %23

23:                                               ; preds = %20
  %24 = getelementptr inbounds nuw i8, ptr %22, i64 40
  %25 = load ptr, ptr %24, align 8
  call void @MemoryContextReset(ptr noundef %25) #12
  br label %exec_eval_cleanup.exit

exec_eval_cleanup.exit:                           ; preds = %20, %23
  call void @llvm.lifetime.end.p0(i64 4, ptr nonnull %6) #12
  call void @llvm.lifetime.end.p0(i64 4, ptr nonnull %5) #12
  call void @llvm.lifetime.end.p0(i64 1, ptr nonnull %4) #12
  ret void
}